target datalayout = "e-m:e-p270:32:32-p271:32:32-p272:64:64-i64:64-i128:128-f80:128-n8:16:32:64-S128"
target triple = "x86_64-pc-linux-gnu"

%"class.clang::SourceRange" = type { %"class.clang::SourceLocation", %"class.clang::SourceLocation" }
%"class.clang::SourceLocation" = type { i32 }
%"class.clang::Token" = type <{ i32, i32, ptr, i16, i16, [4 x i8] }>
%"class.clang::MacroDefinition" = type { %"class.llvm::PointerIntPair.94", %"class.llvm::ArrayRef" }
%"class.llvm::PointerIntPair.94" = type { %"struct.llvm::detail::PunnedPointer.95" }
%"struct.llvm::detail::PunnedPointer.95" = type { [8 x i8] }
%"class.llvm::ArrayRef" = type { ptr, i64 }
%"class.clang::MacroDirective::DefInfo" = type <{ ptr, %"class.clang::SourceLocation", i8, [3 x i8] }>
%"class.clang::ModuleMacro" = type { %"class.llvm::FoldingSetBase::Node", ptr, ptr, ptr, i32, i32 }
%"class.llvm::FoldingSetBase::Node" = type { ptr }
%"class.clang::DefMacroDirective" = type { %"class.clang::MacroDirective.base", ptr }
%"class.clang::MacroDirective.base" = type <{ ptr, %"class.clang::SourceLocation", i8 }>

; Function Attrs: mustprogress nounwind uwtable
define linkonce_odr hidden noundef zeroext i1 @_ZNK5clang14MacroDirective7DefInfo7isValidEv(ptr noundef nonnull align 8 dereferenceable(13) %0) #0 comdat align 2 {
  %2 = alloca ptr, align 8
  store ptr %0, ptr %2, align 8
  %3 = load ptr, ptr %2, align 8
  %4 = getelementptr inbounds nuw %"class.clang::MacroDirective::DefInfo", ptr %3, i32 0, i32 0
  %5 = load ptr, ptr %4, align 8
  %6 = icmp ne ptr %5, null
  ret i1 %6
}

; Function Attrs: mustprogress nounwind uwtable
define linkonce_odr hidden noundef ptr @_ZN4llvm21PointerLikeTypeTraitsIPN5clang17DefMacroDirectiveEE18getFromVoidPointerEPv(ptr noundef %0) #0 comdat align 2 {
  %2 = alloca ptr, align 8
  store ptr %0, ptr %2, align 8
  %3 = load ptr, ptr %2, align 8
  ret ptr %3
}

; Function Attrs: mustprogress nounwind uwtable
define linkonce_odr hidden noundef i64 @_ZNK4llvm6detail13PunnedPointerIPN5clang17DefMacroDirectiveEE5asIntEv(ptr noundef nonnull align 8 dereferenceable(8) %0) #0 comdat align 2 {
  %2 = alloca ptr, align 8
  %3 = alloca i64, align 8
  store ptr %0, ptr %2, align 8
  %4 = load ptr, ptr %2, align 8
  store i64 0, ptr %3, align 8
  %5 = getelementptr inbounds nuw %"struct.llvm::detail::PunnedPointer.95", ptr %4, i32 0, i32 0
  %6 = getelementptr inbounds [8 x i8], ptr %5, i64 0, i64 0
  call void @llvm.memcpy.p0.p0.i64(ptr align 8 %3, ptr align 8 %6, i64 8, i1 false)
  %7 = load i64, ptr %3, align 8
  ret i64 %7
}

; Function Attrs: mustprogress nounwind uwtable
define linkonce_odr hidden noundef ptr @_ZN5clang17DefMacroDirective7getInfoEv(ptr noundef nonnull align 8 dereferenceable(24) %0) #0 comdat align 2 {
  %2 = alloca ptr, align 8
  store ptr %0, ptr %2, align 8
  %3 = load ptr, ptr %2, align 8
  %4 = getelementptr inbounds nuw %"class.clang::DefMacroDirective", ptr %3, i32 0, i32 1
  %5 = load ptr, ptr %4, align 8
  ret ptr %5
}

; Function Attrs: mustprogress nounwind uwtable
define linkonce_odr hidden noundef zeroext i1 @_ZNK5clang14MacroDirective7DefInfo9isInvalidEv(ptr noundef nonnull align 8 dereferenceable(13) %0) #0 comdat align 2 {
  %2 = alloca ptr, align 8
  store ptr %0, ptr %2, align 8
  %3 = load ptr, ptr %2, align 8
  %4 = call noundef zeroext i1 @_ZNK5clang14MacroDirective7DefInfo7isValidEv(ptr noundef nonnull align 8 dereferenceable(13) %3)
  %5 = xor i1 %4, true
  ret i1 %5
}

; Function Attrs: mustprogress nounwind uwtable
define linkonce_odr hidden noundef ptr @_ZN4llvm18PointerIntPairInfoIPN5clang17DefMacroDirectiveELj1ENS_21PointerLikeTypeTraitsIS3_EEE10getPointerEl(i64 noundef %0) #0 comdat align 2 {
  %2 = alloca i64, align 8
  store i64 %0, ptr %2, align 8
  %3 = load i64, ptr %2, align 8
  %4 = and i64 %3, -8
  %5 = inttoptr i64 %4 to ptr
  %6 = call noundef ptr @_ZN4llvm21PointerLikeTypeTraitsIPN5clang17DefMacroDirectiveEE18getFromVoidPointerEPv(ptr noundef %5)
  ret ptr %6
}

; Function Attrs: mustprogress nounwind uwtable
define linkonce_odr hidden noundef i64 @_ZNK4llvm6detail13PunnedPointerIPN5clang17DefMacroDirectiveEEcvlEv(ptr noundef nonnull align 8 dereferenceable(8) %0) #0 comdat align 2 {
  %2 = alloca ptr, align 8
  store ptr %0, ptr %2, align 8
  %3 = load ptr, ptr %2, align 8
  %4 = call noundef i64 @_ZNK4llvm6detail13PunnedPointerIPN5clang17DefMacroDirectiveEE5asIntEv(ptr noundef nonnull align 8 dereferenceable(8) %3)
  ret i64 %4
}

; Function Attrs: mustprogress nounwind uwtable
define linkonce_odr hidden void @_ZN5clang14SourceLocationC2Ev(ptr noundef nonnull align 4 dereferenceable(4) %0) unnamed_addr #0 comdat align 2 {
  %2 = alloca ptr, align 8
  store ptr %0, ptr %2, align 8
  %3 = load ptr, ptr %2, align 8
  %4 = getelementptr inbounds nuw %"class.clang::SourceLocation", ptr %3, i32 0, i32 0
  store i32 0, ptr %4, align 4
  ret void
}

; Function Attrs: mustprogress nounwind uwtable
define linkonce_odr hidden noundef ptr @_ZN5clang14MacroDirective7DefInfo12getMacroInfoEv(ptr noundef nonnull align 8 dereferenceable(13) %0) #0 comdat align 2 {
  %2 = alloca ptr, align 8
  %3 = alloca ptr, align 8
  store ptr %0, ptr %3, align 8
  %4 = load ptr, ptr %3, align 8
  %5 = call noundef zeroext i1 @_ZNK5clang14MacroDirective7DefInfo9isInvalidEv(ptr noundef nonnull align 8 dereferenceable(13) %4)
  br i1 %5, label %6, label %7

6:                                                ; preds = %1
  store ptr null, ptr %2, align 8
  br label %11

7:                                                ; preds = %1
  %8 = getelementptr inbounds nuw %"class.clang::MacroDirective::DefInfo", ptr %4, i32 0, i32 0
  %9 = load ptr, ptr %8, align 8
  %10 = call noundef ptr @_ZN5clang17DefMacroDirective7getInfoEv(ptr noundef nonnull align 8 dereferenceable(24) %9)
  store ptr %10, ptr %2, align 8
  br label %11

11:                                               ; preds = %7, %6
  %12 = load ptr, ptr %2, align 8
  ret ptr %12
}

; Function Attrs: mustprogress nounwind uwtable
define linkonce_odr hidden noundef ptr @_ZNK4llvm14PointerIntPairIPN5clang17DefMacroDirectiveELj1EbNS_21PointerLikeTypeTraitsIS3_EENS_18PointerIntPairInfoIS3_Lj1ES5_EEE10getPointerEv(ptr noundef nonnull align 8 dereferenceable(8) %0) #0 comdat align 2 {
  %2 = alloca ptr, align 8
  store ptr %0, ptr %2, align 8
  %3 = load ptr, ptr %2, align 8
  %4 = getelementptr inbounds nuw %"class.llvm::PointerIntPair.94", ptr %3, i32 0, i32 0
  %5 = call noundef i64 @_ZNK4llvm6detail13PunnedPointerIPN5clang17DefMacroDirectiveEEcvlEv(ptr noundef nonnull align 8 dereferenceable(8) %4)
  %6 = call noundef ptr @_ZN4llvm18PointerIntPairInfoIPN5clang17DefMacroDirectiveELj1ENS_21PointerLikeTypeTraitsIS3_EEE10getPointerEl(i64 noundef %5)
  ret ptr %6
}

; Function Attrs: mustprogress nounwind uwtable
define linkonce_odr hidden i32 @_ZN5clang14SourceLocation18getFromRawEncodingEj(i32 noundef %0) #0 comdat align 2 {
  %2 = alloca %"class.clang::SourceLocation", align 4
  %3 = alloca i32, align 4
  store i32 %0, ptr %3, align 4
  call void @_ZN5clang14SourceLocationC2Ev(ptr noundef nonnull align 4 dereferenceable(4) %2) #13
  %4 = load i32, ptr %3, align 4
  %5 = getelementptr inbounds nuw %"class.clang::SourceLocation", ptr %2, i32 0, i32 0
  store i32 %4, ptr %5, align 4
  %6 = getelementptr inbounds nuw %"class.clang::SourceLocation", ptr %2, i32 0, i32 0
  %7 = load i32, ptr %6, align 4
  ret i32 %7
}

; Function Attrs: mustprogress nounwind uwtable
define linkonce_odr hidden noundef ptr @_ZN5clang14MacroDirective12getMacroInfoEv(ptr noundef nonnull align 8 dereferenceable(13) %0) #0 comdat align 2 {
  %2 = alloca ptr, align 8
  %3 = alloca %"class.clang::MacroDirective::DefInfo", align 8
  %4 = alloca { ptr, i64 }, align 8
  store ptr %0, ptr %2, align 8
  %5 = load ptr, ptr %2, align 8
  %6 = call { ptr, i64 } @_ZN5clang14MacroDirective13getDefinitionEv(ptr noundef nonnull align 8 dereferenceable(13) %5)
  store { ptr, i64 } %6, ptr %4, align 8
  call void @llvm.memcpy.p0.p0.i64(ptr align 8 %3, ptr align 8 %4, i64 13, i1 false)
  %7 = call noundef ptr @_ZN5clang14MacroDirective7DefInfo12getMacroInfoEv(ptr noundef nonnull align 8 dereferenceable(13) %3)
  ret ptr %7
}

; Function Attrs: mustprogress nounwind uwtable
define linkonce_odr hidden noundef ptr @_ZNK5clang11ModuleMacro12getMacroInfoEv(ptr noundef nonnull align 8 dereferenceable(40) %0) #0 comdat align 2 {
  %2 = alloca ptr, align 8
  store ptr %0, ptr %2, align 8
  %3 = load ptr, ptr %2, align 8
  %4 = getelementptr inbounds nuw %"class.clang::ModuleMacro", ptr %3, i32 0, i32 2
  %5 = load ptr, ptr %4, align 8
  ret ptr %5
}

; Function Attrs: mustprogress nounwind uwtable
define linkonce_odr hidden noundef nonnull align 8 dereferenceable(8) ptr @_ZNK4llvm8ArrayRefIPN5clang11ModuleMacroEE4backEv(ptr noundef nonnull align 8 dereferenceable(16) %0) #0 comdat align 2 {
  %2 = alloca ptr, align 8
  store ptr %0, ptr %2, align 8
  %3 = load ptr, ptr %2, align 8
  %4 = getelementptr inbounds nuw %"class.llvm::ArrayRef", ptr %3, i32 0, i32 0
  %5 = load ptr, ptr %4, align 8
  %6 = getelementptr inbounds nuw %"class.llvm::ArrayRef", ptr %3, i32 0, i32 1
  %7 = load i64, ptr %6, align 8
  %8 = sub i64 %7, 1
  %9 = getelementptr inbounds ptr, ptr %5, i64 %8
  ret ptr %9
}

; Function Attrs: mustprogress nounwind uwtable
define linkonce_odr hidden noundef zeroext i1 @_ZNK4llvm8ArrayRefIPN5clang11ModuleMacroEE5emptyEv(ptr noundef nonnull align 8 dereferenceable(16) %0) #0 comdat align 2 {
  %2 = alloca ptr, align 8
  store ptr %0, ptr %2, align 8
  %3 = load ptr, ptr %2, align 8
  %4 = getelementptr inbounds nuw %"class.llvm::ArrayRef", ptr %3, i32 0, i32 1
  %5 = load i64, ptr %4, align 8
  %6 = icmp eq i64 %5, 0
  ret i1 %6
}

; Function Attrs: mustprogress nounwind uwtable
define linkonce_odr hidden noundef ptr @_ZNK5clang15MacroDefinition17getLocalDirectiveEv(ptr noundef nonnull align 8 dereferenceable(24) %0) #0 comdat align 2 {
  %2 = alloca ptr, align 8
  store ptr %0, ptr %2, align 8
  %3 = load ptr, ptr %2, align 8
  %4 = getelementptr inbounds nuw %"class.clang::MacroDefinition", ptr %3, i32 0, i32 0
  %5 = call noundef ptr @_ZNK4llvm14PointerIntPairIPN5clang17DefMacroDirectiveELj1EbNS_21PointerLikeTypeTraitsIS3_EENS_18PointerIntPairInfoIS3_Lj1ES5_EEE10getPointerEv(ptr noundef nonnull align 8 dereferenceable(8) %4)
  ret ptr %5
}

; Function Attrs: mustprogress nounwind uwtable
define linkonce_odr hidden void @_ZN5clang11SourceRangeC2ENS_14SourceLocationE(ptr noundef nonnull align 4 dereferenceable(8) %0, i32 %1) unnamed_addr #0 comdat align 2 {
  %3 = alloca %"class.clang::SourceLocation", align 4
  %4 = alloca ptr, align 8
  %5 = getelementptr inbounds nuw %"class.clang::SourceLocation", ptr %3, i32 0, i32 0
  store i32 %1, ptr %5, align 4
  store ptr %0, ptr %4, align 8
  %6 = load ptr, ptr %4, align 8
  %7 = getelementptr inbounds nuw %"class.clang::SourceRange", ptr %6, i32 0, i32 0
  call void @llvm.memcpy.p0.p0.i64(ptr align 4 %7, ptr align 4 %3, i64 4, i1 false)
  %8 = getelementptr inbounds nuw %"class.clang::SourceRange", ptr %6, i32 0, i32 1
  call void @llvm.memcpy.p0.p0.i64(ptr align 4 %8, ptr align 4 %3, i64 4, i1 false)
  ret void
}

; Function Attrs: mustprogress nounwind uwtable
define linkonce_odr hidden i32 @_ZNK5clang5Token11getLocationEv(ptr noundef nonnull align 8 dereferenceable(20) %0) #0 comdat align 2 {
  %2 = alloca %"class.clang::SourceLocation", align 4
  %3 = alloca ptr, align 8
  store ptr %0, ptr %3, align 8
  %4 = load ptr, ptr %3, align 8
  %5 = getelementptr inbounds nuw %"class.clang::Token", ptr %4, i32 0, i32 0
  %6 = load i32, ptr %5, align 8
  %7 = call i32 @_ZN5clang14SourceLocation18getFromRawEncodingEj(i32 noundef %6)
  %8 = getelementptr inbounds nuw %"class.clang::SourceLocation", ptr %2, i32 0, i32 0
  store i32 %7, ptr %8, align 4
  %9 = getelementptr inbounds nuw %"class.clang::SourceLocation", ptr %2, i32 0, i32 0
  %10 = load i32, ptr %9, align 4
  ret i32 %10
}

; Function Attrs: mustprogress nounwind uwtable
define linkonce_odr hidden noundef ptr @_ZNK5clang15MacroDefinition12getMacroInfoEv(ptr noundef nonnull align 8 dereferenceable(24) %0) #0 comdat align 2 {
  %2 = alloca ptr, align 8
  %3 = alloca ptr, align 8
  %4 = alloca ptr, align 8
  store ptr %0, ptr %3, align 8
  %5 = load ptr, ptr %3, align 8
  %6 = getelementptr inbounds nuw %"class.clang::MacroDefinition", ptr %5, i32 0, i32 1
  %7 = call noundef zeroext i1 @_ZNK4llvm8ArrayRefIPN5clang11ModuleMacroEE5emptyEv(ptr noundef nonnull align 8 dereferenceable(16) %6)
  br i1 %7, label %13, label %8

8:                                                ; preds = %1
  %9 = getelementptr inbounds nuw %"class.clang::MacroDefinition", ptr %5, i32 0, i32 1
  %10 = call noundef nonnull align 8 dereferenceable(8) ptr @_ZNK4llvm8ArrayRefIPN5clang11ModuleMacroEE4backEv(ptr noundef nonnull align 8 dereferenceable(16) %9)
  %11 = load ptr, ptr %10, align 8
  %12 = call noundef ptr @_ZNK5clang11ModuleMacro12getMacroInfoEv(ptr noundef nonnull align 8 dereferenceable(40) %11)
  store ptr %12, ptr %2, align 8
  br label %21

13:                                               ; preds = %1
  %14 = call noundef ptr @_ZNK5clang15MacroDefinition17getLocalDirectiveEv(ptr noundef nonnull align 8 dereferenceable(24) %5)
  store ptr %14, ptr %4, align 8
  %15 = load ptr, ptr %4, align 8
  %16 = icmp ne ptr %15, null
  br i1 %16, label %17, label %20

17:                                               ; preds = %13
  %18 = load ptr, ptr %4, align 8
  %19 = call noundef ptr @_ZN5clang14MacroDirective12getMacroInfoEv(ptr noundef nonnull align 8 dereferenceable(13) %18)
  store ptr %19, ptr %2, align 8
  br label %21

20:                                               ; preds = %13
  store ptr null, ptr %2, align 8
  br label %21

21:                                               ; preds = %20, %17, %8
  %22 = load ptr, ptr %2, align 8
  ret ptr %22
}

; Function Attrs: mustprogress nounwind uwtable
define linkonce_odr hidden noundef zeroext i1 @_ZNK5clang15MacroDefinitioncvbEv(ptr noundef nonnull align 8 dereferenceable(24) %0) #0 comdat align 2 {
  %2 = alloca ptr, align 8
  store ptr %0, ptr %2, align 8
  %3 = load ptr, ptr %2, align 8
  %4 = call noundef ptr @_ZNK5clang15MacroDefinition17getLocalDirectiveEv(ptr noundef nonnull align 8 dereferenceable(24) %3)
  %5 = icmp ne ptr %4, null
  br i1 %5, label %10, label %6

6:                                                ; preds = %1
  %7 = getelementptr inbounds nuw %"class.clang::MacroDefinition", ptr %3, i32 0, i32 1
  %8 = call noundef zeroext i1 @_ZNK4llvm8ArrayRefIPN5clang11ModuleMacroEE5emptyEv(ptr noundef nonnull align 8 dereferenceable(16) %7)
  %9 = xor i1 %8, true
  br label %10

10:                                               ; preds = %6, %1
  %11 = phi i1 [ true, %1 ], [ %9, %6 ]
  ret i1 %11
}

; Function Attrs: mustprogress nounwind uwtable
define dso_local void @_ZN5clang19PreprocessingRecord6IfndefENS_14SourceLocationERKNS_5TokenERKNS_15MacroDefinitionE(ptr noundef nonnull align 8 dereferenceable(240) %0, i32 %1, ptr noundef nonnull align 8 dereferenceable(20) %2, ptr noundef nonnull align 8 dereferenceable(24) %3) unnamed_addr #0 align 2 {
  %5 = alloca %"class.clang::SourceLocation", align 4
  %6 = alloca ptr, align 8
  %7 = alloca ptr, align 8
  %8 = alloca ptr, align 8
  %9 = alloca %"class.clang::SourceRange", align 4
  %10 = alloca %"class.clang::SourceLocation", align 4
  %11 = getelementptr inbounds nuw %"class.clang::SourceLocation", ptr %5, i32 0, i32 0
  store i32 %1, ptr %11, align 4
  store ptr %0, ptr %6, align 8
  store ptr %2, ptr %7, align 8
  store ptr %3, ptr %8, align 8
  %12 = load ptr, ptr %6, align 8
  %13 = load ptr, ptr %8, align 8
  %14 = call noundef zeroext i1 @_ZNK5clang15MacroDefinitioncvbEv(ptr noundef nonnull align 8 dereferenceable(24) %13)
  br i1 %14, label %15, label %25

15:                                               ; preds = %4
  %16 = load ptr, ptr %7, align 8
  %17 = load ptr, ptr %8, align 8
  %18 = call noundef ptr @_ZNK5clang15MacroDefinition12getMacroInfoEv(ptr noundef nonnull align 8 dereferenceable(24) %17)
  %19 = load ptr, ptr %7, align 8
  %20 = call i32 @_ZNK5clang5Token11getLocationEv(ptr noundef nonnull align 8 dereferenceable(20) %19)
  %21 = getelementptr inbounds nuw %"class.clang::SourceLocation", ptr %10, i32 0, i32 0
  store i32 %20, ptr %21, align 4
  %22 = getelementptr inbounds nuw %"class.clang::SourceLocation", ptr %10, i32 0, i32 0
  %23 = load i32, ptr %22, align 4
  call void @_ZN5clang11SourceRangeC2ENS_14SourceLocationE(ptr noundef nonnull align 4 dereferenceable(8) %9, i32 %23)
  %24 = load i64, ptr %9, align 4
  call void @_ZN5clang19PreprocessingRecord17addMacroExpansionERKNS_5TokenEPKNS_9MacroInfoENS_11SourceRangeE(ptr noundef nonnull align 8 dereferenceable(240) %12, ptr noundef nonnull align 8 dereferenceable(20) %16, ptr noundef %18, i64 %24)
  br label %25

25:                                               ; preds = %15, %4
  ret void
}