; Function Attrs: mustprogress nounwind uwtable
define dso_local void @_ZN5clang19PreprocessingRecord6IfndefENS_14SourceLocationERKNS_5TokenERKNS_15MacroDefinitionE(ptr noundef nonnull align 8 dereferenceable(240) %0, i32 %1, ptr nocapture noundef nonnull readonly align 8 dereferenceable(20) %2, ptr nocapture noundef nonnull readonly align 8 dereferenceable(24) %3) unnamed_addr #3 align 2 {
  %.0.copyload.i.i.i.i.i = load i64, ptr %3, align 8
  %.not.i = icmp ugt i64 %.0.copyload.i.i.i.i.i, 7
  %5 = getelementptr inbounds i8, ptr %3, i64 16
  %6 = load i64, ptr %5, align 8
  %7 = icmp ne i64 %6, 0
  %8 = select i1 %.not.i, i1 true, i1 %7
  br i1 %8, label %9, label %25

9:                                                ; preds = %4
  %10 = icmp eq i64 %6, 0
  br i1 %10, label %17, label %11

11:                                               ; preds = %9
  %12 = getelementptr inbounds nuw i8, ptr %3, i64 8
  %13 = load ptr, ptr %12, align 8
  %14 = getelementptr ptr, ptr %13, i64 %6
  %15 = getelementptr i8, ptr %14, i64 -8
  %16 = load ptr, ptr %15, align 8
  br label %_ZN5clang14MacroDirective12getMacroInfoEv.exit.sink.split.i

17:                                               ; preds = %9
  %18 = and i64 %.0.copyload.i.i.i.i.i, -8
  %.not.i7 = icmp eq i64 %18, 0
  br i1 %.not.i7, label %_ZNK5clang15MacroDefinition12getMacroInfoEv.exit, label %19

19:                                               ; preds = %17
  %20 = inttoptr i64 %18 to ptr
  %21 = tail call { ptr, i64 } @_ZN5clang14MacroDirective13getDefinitionEv(ptr noundef nonnull align 8 dereferenceable(13) %20) #18
  %.fca.0.extract.i.i = extractvalue { ptr, i64 } %21, 0
  %.not.i.i.i.i = icmp eq ptr %.fca.0.extract.i.i, null
  br i1 %.not.i.i.i.i, label %_ZNK5clang15MacroDefinition12getMacroInfoEv.exit, label %_ZN5clang14MacroDirective12getMacroInfoEv.exit.sink.split.i

_ZN5clang14MacroDirective12getMacroInfoEv.exit.sink.split.i: ; preds = %19, %11
  %.fca.0.extract.i.sink.i = phi ptr [ %16, %11 ], [ %.fca.0.extract.i.i, %19 ]
  %22 = getelementptr inbounds nuw i8, ptr %.fca.0.extract.i.sink.i, i64 16
  %23 = load ptr, ptr %22, align 8
  br label %_ZNK5clang15MacroDefinition12getMacroInfoEv.exit

_ZNK5clang15MacroDefinition12getMacroInfoEv.exit: ; preds = %17, %19, %_ZN5clang14MacroDirective12getMacroInfoEv.exit.sink.split.i
  %.0.i = phi ptr [ null, %17 ], [ null, %19 ], [ %23, %_ZN5clang14MacroDirective12getMacroInfoEv.exit.sink.split.i ]
  %24 = load i32, ptr %2, align 8
  %.sroa.2.0.insert.ext = zext i32 %24 to i64
  %.sroa.2.0.insert.shift = shl nuw i64 %.sroa.2.0.insert.ext, 32
  %.sroa.0.0.insert.insert = or disjoint i64 %.sroa.2.0.insert.shift, %.sroa.2.0.insert.ext
  tail call void @_ZN5clang19PreprocessingRecord17addMacroExpansionERKNS_5TokenEPKNS_9MacroInfoENS_11SourceRangeE(ptr noundef nonnull align 8 dereferenceable(240) %0, ptr noundef nonnull align 8 dereferenceable(20) %2, ptr noundef %.0.i, i64 %.sroa.0.0.insert.insert)
  br label %25

25:                                               ; preds = %_ZNK5clang15MacroDefinition12getMacroInfoEv.exit, %4
  ret void
}